target datalayout = "e-m:e-p270:32:32-p271:32:32-p272:64:64-i64:64-i128:128-f80:128-n8:16:32:64-S128"
target triple = "x86_64-pc-linux-gnu"

%struct.AVFilterContext = type { ptr, ptr, ptr, ptr, ptr, i32, ptr, ptr, i32, ptr, ptr, i32, i32, ptr, ptr, ptr, ptr, i32, ptr, i32, i32 }
%struct.SideDataContext = type { ptr, i32, i32 }

@.str.48 = private unnamed_addr constant [28 x i8] c"Side data type must be set\0A\00", align 1

; Function Attrs: cold nounwind optsize uwtable
define internal i32 @init(ptr noundef %0) #0 {
  %2 = alloca i32, align 4
  %3 = alloca ptr, align 8
  %4 = alloca ptr, align 8
  %5 = alloca i32, align 4
  store ptr %0, ptr %3, align 8, !tbaa !4
  call void @llvm.lifetime.start.p0(i64 8, ptr %4) #5
  %6 = load ptr, ptr %3, align 8, !tbaa !4
  %7 = getelementptr inbounds nuw %struct.AVFilterContext, ptr %6, i32 0, i32 9
  %8 = load ptr, ptr %7, align 8, !tbaa !9
  store ptr %8, ptr %4, align 8, !tbaa !22
  %9 = load ptr, ptr %4, align 8, !tbaa !22
  %10 = getelementptr inbounds nuw %struct.SideDataContext, ptr %9, i32 0, i32 2
  %11 = load i32, ptr %10, align 4, !tbaa !24
  %12 = icmp eq i32 %11, -1
  br i1 %12, label %13, label %20

13:                                               ; preds = %1
  %14 = load ptr, ptr %4, align 8, !tbaa !22
  %15 = getelementptr inbounds nuw %struct.SideDataContext, ptr %14, i32 0, i32 1
  %16 = load i32, ptr %15, align 8, !tbaa !26
  %17 = icmp ne i32 %16, 1
  br i1 %17, label %18, label %20

18:                                               ; preds = %13
  %19 = load ptr, ptr %3, align 8, !tbaa !4
  call void (ptr, i32, ptr, ...) @av_log(ptr noundef %19, i32 noundef 16, ptr noundef @.str.48)
  store i32 -22, ptr %2, align 4
  store i32 1, ptr %5, align 4
  br label %21

20:                                               ; preds = %13, %1
  store i32 0, ptr %2, align 4
  store i32 1, ptr %5, align 4
  br label %21

21:                                               ; preds = %20, %18
  call void @llvm.lifetime.end.p0(i64 8, ptr %4) #5
  %22 = load i32, ptr %2, align 4
  ret i32 %22
}